target datalayout = "e-m:e-p270:32:32-p271:32:32-p272:64:64-i64:64-i128:128-f80:128-n8:16:32:64-S128"
target triple = "x86_64-pc-linux-gnu"

; Function Attrs: nounwind uwtable
define i32 @Abc_NtkRetimeDebug(ptr noundef %0) #0 {
  %2 = alloca ptr, align 8
  %3 = alloca ptr, align 8
  store ptr %0, ptr %2, align 8, !tbaa !3
  call void @llvm.lifetime.start.p0(i64 8, ptr %3) #7
  %4 = load ptr, ptr %2, align 8, !tbaa !3
  %5 = call i32 @Abc_NtkToSop(ptr noundef %4, i32 noundef -1, i32 noundef 1000000000)
  %6 = load ptr, ptr %2, align 8, !tbaa !3
  %7 = call ptr @Abc_NtkDup(ptr noundef %6)
  store ptr %7, ptr %3, align 8, !tbaa !3
  %8 = load ptr, ptr %3, align 8, !tbaa !3
  %9 = call i32 @Abc_NtkRetime(ptr noundef %8, i32 noundef 3, i32 noundef 0, i32 noundef 0, i32 noundef 1, i32 noundef 0, i32 noundef 1, i32 noundef 0)
  %10 = load ptr, ptr %2, align 8, !tbaa !3
  %11 = load ptr, ptr %3, align 8, !tbaa !3
  %12 = call i32 @Abc_NtkSecFraig(ptr noundef %10, ptr noundef %11, i32 noundef 10000, i32 noundef 3, i32 noundef 0)
  %13 = icmp ne i32 %12, 0
  %14 = xor i1 %13, true
  %15 = zext i1 %14 to i32
  call void @llvm.lifetime.end.p0(i64 8, ptr %3) #7
  ret i32 %15
}