; Function Attrs: nounwind uwtable
define range(i32 0, 2) i32 @Abc_NtkRetimeDebug(ptr noundef %0) local_unnamed_addr #0 {
  %2 = tail call i32 @Abc_NtkToSop(ptr noundef %0, i32 noundef -1, i32 noundef 1000000000) #10
  %3 = tail call ptr @Abc_NtkDup(ptr noundef %0) #10
  %4 = tail call i32 @Abc_NtkRetime(ptr noundef %3, i32 noundef 3, i32 noundef 0, i32 noundef 0, i32 noundef 1, i32 noundef 0, i32 noundef 1, i32 noundef 0)
  %5 = tail call i32 @Abc_NtkSecFraig(ptr noundef %0, ptr noundef %3, i32 noundef 10000, i32 noundef 3, i32 noundef 0) #10
  %.not = icmp eq i32 %5, 0
  %6 = zext i1 %.not to i32
  ret i32 %6
}